target datalayout = "e-m:e-p270:32:32-p271:32:32-p272:64:64-i64:64-i128:128-f80:128-n8:16:32:64-S128"
target triple = "x86_64-unknown-linux-gnu"

%"class.icu_75::UnicodeString" = type { %"class.icu_75::Replaceable", %"union.icu_75::UnicodeString::StackBufferOrFields" }
%"class.icu_75::Replaceable" = type { %"class.icu_75::UObject" }
%"class.icu_75::UObject" = type { ptr }
%"union.icu_75::UnicodeString::StackBufferOrFields" = type { %struct.anon.0, [32 x i8] }
%struct.anon.0 = type { i16, i32, i32, ptr }
%"class.icu_75::Char16Ptr" = type { ptr }
%struct.anon = type { i16, [27 x i16] }
%"class.icu_75::TimeZone" = type { %"class.icu_75::UObject", %"class.icu_75::UnicodeString" }

@_ZTVN6icu_7513UnicodeStringE = external unnamed_addr constant { [13 x ptr] }, align 8
@_ZTVN6icu_7511ReplaceableE = external unnamed_addr constant { [13 x ptr] }, align 8
@_ZTVN6icu_757UObjectE = external unnamed_addr constant { [5 x ptr] }, align 8

; Function Attrs: mustprogress nounwind uwtable
define linkonce_odr void @_ZN6icu_757UObjectC2Ev(ptr noundef nonnull align 8 dereferenceable(8) %this) unnamed_addr #0 comdat align 2 {
entry:
  %this.addr = alloca ptr, align 8
  store ptr %this, ptr %this.addr, align 8
  %this1 = load ptr, ptr %this.addr, align 8
  store ptr getelementptr inbounds ({ [5 x ptr] }, ptr @_ZTVN6icu_757UObjectE, i32 0, i32 0, i32 2), ptr %this1, align 8
  ret void
}

; Function Attrs: mustprogress nounwind uwtable
define linkonce_odr void @_ZN6icu_7511ReplaceableC2Ev(ptr noundef nonnull align 8 dereferenceable(8) %this) unnamed_addr #0 comdat align 2 {
entry:
  %this.addr = alloca ptr, align 8
  store ptr %this, ptr %this.addr, align 8
  %this1 = load ptr, ptr %this.addr, align 8
  call void @_ZN6icu_757UObjectC2Ev(ptr noundef nonnull align 8 dereferenceable(8) %this1) #9
  store ptr getelementptr inbounds ({ [13 x ptr] }, ptr @_ZTVN6icu_7511ReplaceableE, i32 0, i32 0, i32 2), ptr %this1, align 8
  ret void
}

; Function Attrs: mustprogress nounwind uwtable
define linkonce_odr void @_ZN6icu_759Char16PtrD2Ev(ptr noundef nonnull align 8 dereferenceable(8) %this) unnamed_addr #0 comdat align 2 {
entry:
  %this.addr = alloca ptr, align 8
  store ptr %this, ptr %this.addr, align 8
  %this1 = load ptr, ptr %this.addr, align 8
  %p_ = getelementptr inbounds %"class.icu_75::Char16Ptr", ptr %this1, i32 0, i32 0
  %0 = load ptr, ptr %p_, align 8
  call void asm sideeffect "", "rm,~{memory},~{dirflag},~{fpsr},~{flags}"(ptr %0) #9, !srcloc !4
  ret void
}

; Function Attrs: mustprogress nounwind uwtable
define linkonce_odr void @_ZN6icu_759Char16PtrC2EPDs(ptr noundef nonnull align 8 dereferenceable(8) %this, ptr noundef %p) unnamed_addr #0 comdat align 2 {
entry:
  %this.addr = alloca ptr, align 8
  %p.addr = alloca ptr, align 8
  store ptr %this, ptr %this.addr, align 8
  store ptr %p, ptr %p.addr, align 8
  %this1 = load ptr, ptr %this.addr, align 8
  %p_ = getelementptr inbounds %"class.icu_75::Char16Ptr", ptr %this1, i32 0, i32 0
  %0 = load ptr, ptr %p.addr, align 8
  store ptr %0, ptr %p_, align 8
  ret void
}

; Function Attrs: mustprogress uwtable
define linkonce_odr noundef nonnull align 8 dereferenceable(64) ptr @_ZNK6icu_758TimeZone5getIDERNS_13UnicodeStringE(ptr noundef nonnull align 8 dereferenceable(72) %this, ptr noundef nonnull align 8 dereferenceable(64) %ID) #1 comdat align 2 {
entry:
  %this.addr = alloca ptr, align 8
  %ID.addr = alloca ptr, align 8
  store ptr %this, ptr %this.addr, align 8
  store ptr %ID, ptr %ID.addr, align 8
  %this1 = load ptr, ptr %this.addr, align 8
  %fID = getelementptr inbounds %"class.icu_75::TimeZone", ptr %this1, i32 0, i32 1
  %0 = load ptr, ptr %ID.addr, align 8
  %call = call noundef nonnull align 8 dereferenceable(64) ptr @_ZN6icu_7513UnicodeStringaSERKS0_(ptr noundef nonnull align 8 dereferenceable(64) %0, ptr noundef nonnull align 8 dereferenceable(64) %fID)
  %1 = load ptr, ptr %ID.addr, align 8
  ret ptr %1
}

; Function Attrs: mustprogress uwtable
define linkonce_odr void @_ZN6icu_7513UnicodeStringC2Ev(ptr noundef nonnull align 8 dereferenceable(64) %this) unnamed_addr #1 comdat align 2 {
entry:
  %this.addr = alloca ptr, align 8
  store ptr %this, ptr %this.addr, align 8
  %this1 = load ptr, ptr %this.addr, align 8
  call void @_ZN6icu_7511ReplaceableC2Ev(ptr noundef nonnull align 8 dereferenceable(8) %this1)
  store ptr getelementptr inbounds ({ [13 x ptr] }, ptr @_ZTVN6icu_7513UnicodeStringE, i32 0, i32 0, i32 2), ptr %this1, align 8
  %fUnion2 = getelementptr inbounds %"class.icu_75::UnicodeString", ptr %this1, i32 0, i32 1
  %fLengthAndFlags = getelementptr inbounds %struct.anon, ptr %fUnion2, i32 0, i32 0
  store i16 2, ptr %fLengthAndFlags, align 8
  ret void
}

; Function Attrs: mustprogress nounwind uwtable
define internal noundef signext i8 @_ZL9U_SUCCESS10UErrorCode(i32 noundef %code) #0 {
entry:
  %code.addr = alloca i32, align 4
  store i32 %code, ptr %code.addr, align 4
  %0 = load i32, ptr %code.addr, align 4
  %cmp = icmp sle i32 %0, 0
  %conv = zext i1 %cmp to i8
  ret i8 %conv
}

; Function Attrs: mustprogress uwtable
define i32 @ucal_getDefaultTimeZone_75(ptr noundef %result, i32 noundef %resultCapacity, ptr noundef %ec) #1 personality ptr @__gxx_personality_v0 {
entry:
  %result.addr = alloca ptr, align 8
  %resultCapacity.addr = alloca i32, align 4
  %ec.addr = alloca ptr, align 8
  %len = alloca i32, align 4
  %zone = alloca ptr, align 8
  %id = alloca %"class.icu_75::UnicodeString", align 8
  %exn.slot = alloca ptr, align 8
  %ehselector.slot = alloca i32, align 4
  %agg.tmp = alloca %"class.icu_75::Char16Ptr", align 8
  store ptr %result, ptr %result.addr, align 8
  store i32 %resultCapacity, ptr %resultCapacity.addr, align 4
  store ptr %ec, ptr %ec.addr, align 8
  store i32 0, ptr %len, align 4
  %0 = load ptr, ptr %ec.addr, align 8
  %cmp = icmp ne ptr %0, null
  br i1 %cmp, label %land.lhs.true, label %if.end9

land.lhs.true:                                    ; preds = %entry
  %1 = load ptr, ptr %ec.addr, align 8
  %2 = load i32, ptr %1, align 4
  %call = call noundef signext i8 @_ZL9U_SUCCESS10UErrorCode(i32 noundef %2)
  %tobool = icmp ne i8 %call, 0
  br i1 %tobool, label %if.then, label %if.end9

if.then:                                          ; preds = %land.lhs.true
  %call1 = call noundef ptr @_ZN6icu_758TimeZone13createDefaultEv()
  store ptr %call1, ptr %zone, align 8
  %3 = load ptr, ptr %zone, align 8
  %cmp2 = icmp eq ptr %3, null
  br i1 %cmp2, label %if.then3, label %if.else

if.then3:                                         ; preds = %if.then
  %4 = load ptr, ptr %ec.addr, align 8
  store i32 7, ptr %4, align 4
  br label %if.end

if.else:                                          ; preds = %if.then
  call void @_ZN6icu_7513UnicodeStringC2Ev(ptr noundef nonnull align 8 dereferenceable(64) %id)
  %5 = load ptr, ptr %zone, align 8
  %call4 = invoke noundef nonnull align 8 dereferenceable(64) ptr @_ZNK6icu_758TimeZone5getIDERNS_13UnicodeStringE(ptr noundef nonnull align 8 dereferenceable(72) %5, ptr noundef nonnull align 8 dereferenceable(64) %id)
          to label %invoke.cont unwind label %lpad

invoke.cont:                                      ; preds = %if.else
  %6 = load ptr, ptr %zone, align 8
  %isnull = icmp eq ptr %6, null
  br i1 %isnull, label %delete.end, label %delete.notnull

delete.notnull:                                   ; preds = %invoke.cont
  %vtable = load ptr, ptr %6, align 8
  %vfn = getelementptr inbounds ptr, ptr %vtable, i64 1
  %7 = load ptr, ptr %vfn, align 8
  call void %7(ptr noundef nonnull align 8 dereferenceable(72) %6) #9
  br label %delete.end

delete.end:                                       ; preds = %delete.notnull, %invoke.cont
  %8 = load ptr, ptr %result.addr, align 8
  invoke void @_ZN6icu_759Char16PtrC2EPDs(ptr noundef nonnull align 8 dereferenceable(8) %agg.tmp, ptr noundef %8)
          to label %invoke.cont5 unwind label %lpad

invoke.cont5:                                     ; preds = %delete.end
  %9 = load i32, ptr %resultCapacity.addr, align 4
  %10 = load ptr, ptr %ec.addr, align 8
  %call8 = invoke noundef i32 @_ZNK6icu_7513UnicodeString7extractENS_9Char16PtrEiR10UErrorCode(ptr noundef nonnull align 8 dereferenceable(64) %id, ptr noundef %agg.tmp, i32 noundef %9, ptr noundef nonnull align 4 dereferenceable(4) %10)
          to label %invoke.cont7 unwind label %lpad6

invoke.cont7:                                     ; preds = %invoke.cont5
  store i32 %call8, ptr %len, align 4
  call void @_ZN6icu_759Char16PtrD2Ev(ptr noundef nonnull align 8 dereferenceable(8) %agg.tmp) #9
  call void @_ZN6icu_7513UnicodeStringD1Ev(ptr noundef nonnull align 8 dereferenceable(64) %id) #9
  br label %if.end

lpad:                                             ; preds = %delete.end, %if.else
  %11 = landingpad { ptr, i32 }
          cleanup
  %12 = extractvalue { ptr, i32 } %11, 0
  store ptr %12, ptr %exn.slot, align 8
  %13 = extractvalue { ptr, i32 } %11, 1
  store i32 %13, ptr %ehselector.slot, align 4
  br label %ehcleanup

lpad6:                                            ; preds = %invoke.cont5
  %14 = landingpad { ptr, i32 }
          cleanup
  %15 = extractvalue { ptr, i32 } %14, 0
  store ptr %15, ptr %exn.slot, align 8
  %16 = extractvalue { ptr, i32 } %14, 1
  store i32 %16, ptr %ehselector.slot, align 4
  call void @_ZN6icu_759Char16PtrD2Ev(ptr noundef nonnull align 8 dereferenceable(8) %agg.tmp) #9
  br label %ehcleanup

ehcleanup:                                        ; preds = %lpad6, %lpad
  call void @_ZN6icu_7513UnicodeStringD1Ev(ptr noundef nonnull align 8 dereferenceable(64) %id) #9
  br label %eh.resume

if.end:                                           ; preds = %invoke.cont7, %if.then3
  br label %if.end9

if.end9:                                          ; preds = %if.end, %land.lhs.true, %entry
  %17 = load i32, ptr %len, align 4
  ret i32 %17

eh.resume:                                        ; preds = %ehcleanup
  %exn = load ptr, ptr %exn.slot, align 8
  %sel = load i32, ptr %ehselector.slot, align 4
  %lpad.val = insertvalue { ptr, i32 } poison, ptr %exn, 0
  %lpad.val10 = insertvalue { ptr, i32 } %lpad.val, i32 %sel, 1
  resume { ptr, i32 } %lpad.val10
}