; Function Attrs: mustprogress uwtable
define noundef i32 @ucal_getDefaultTimeZone_75(ptr noundef %result, i32 noundef %resultCapacity, ptr noundef %ec) local_unnamed_addr #1 personality ptr @__gxx_personality_v0 {
entry:
  %id = alloca %"class.icu_75::UnicodeString", align 8
  %agg.tmp = alloca %"class.icu_75::Char16Ptr", align 8
  %cmp.not = icmp eq ptr %ec, null
  br i1 %cmp.not, label %if.end9, label %land.lhs.true

land.lhs.true:                                    ; preds = %entry
  %0 = load i32, ptr %ec, align 4
  %cmp.i = icmp sgt i32 %0, 0
  br i1 %cmp.i, label %if.end9, label %if.then

if.then:                                          ; preds = %land.lhs.true
  %call1 = tail call noundef ptr @_ZN6icu_758TimeZone13createDefaultEv()
  %cmp2 = icmp eq ptr %call1, null
  br i1 %cmp2, label %if.then3, label %if.else

if.then3:                                         ; preds = %if.then
  store i32 7, ptr %ec, align 4
  br label %if.end9

if.else:                                          ; preds = %if.then
  store ptr getelementptr inbounds ({ [13 x ptr] }, ptr @_ZTVN6icu_7513UnicodeStringE, i64 0, i32 0, i64 2), ptr %id, align 8
  %fUnion2.i = getelementptr inbounds i8, ptr %id, i64 8
  store i16 2, ptr %fUnion2.i, align 8
  %fID.i = getelementptr inbounds i8, ptr %call1, i64 8
  %call.i7 = invoke noundef nonnull align 8 dereferenceable(64) ptr @_ZN6icu_7513UnicodeStringaSERKS0_(ptr noundef nonnull align 8 dereferenceable(64) %id, ptr noundef nonnull align 8 dereferenceable(64) %fID.i)
          to label %delete.notnull unwind label %lpad

delete.notnull:                                   ; preds = %if.else
  %vtable = load ptr, ptr %call1, align 8
  %vfn = getelementptr inbounds i8, ptr %vtable, i64 8
  %1 = load ptr, ptr %vfn, align 8
  call void %1(ptr noundef nonnull align 8 dereferenceable(72) %call1) #11
  store ptr %result, ptr %agg.tmp, align 8
  %call8 = invoke noundef i32 @_ZNK6icu_7513UnicodeString7extractENS_9Char16PtrEiR10UErrorCode(ptr noundef nonnull align 8 dereferenceable(64) %id, ptr noundef nonnull %agg.tmp, i32 noundef %resultCapacity, ptr noundef nonnull align 4 dereferenceable(4) %ec)
          to label %invoke.cont7 unwind label %lpad6

invoke.cont7:                                     ; preds = %delete.notnull
  %2 = load ptr, ptr %agg.tmp, align 8
  call void asm sideeffect "", "rm,~{memory},~{dirflag},~{fpsr},~{flags}"(ptr %2) #11, !srcloc !4
  call void @_ZN6icu_7513UnicodeStringD1Ev(ptr noundef nonnull align 8 dereferenceable(64) %id) #11
  br label %if.end9

lpad:                                             ; preds = %if.else
  %3 = landingpad { ptr, i32 }
          cleanup
  br label %ehcleanup

lpad6:                                            ; preds = %delete.notnull
  %4 = landingpad { ptr, i32 }
          cleanup
  %5 = load ptr, ptr %agg.tmp, align 8
  call void asm sideeffect "", "rm,~{memory},~{dirflag},~{fpsr},~{flags}"(ptr %5) #11, !srcloc !4
  br label %ehcleanup

ehcleanup:                                        ; preds = %lpad6, %lpad
  %.pn = phi { ptr, i32 } [ %4, %lpad6 ], [ %3, %lpad ]
  call void @_ZN6icu_7513UnicodeStringD1Ev(ptr noundef nonnull align 8 dereferenceable(64) %id) #11
  resume { ptr, i32 } %.pn

if.end9:                                          ; preds = %if.then3, %invoke.cont7, %land.lhs.true, %entry
  %len.0 = phi i32 [ 0, %if.then3 ], [ %call8, %invoke.cont7 ], [ 0, %land.lhs.true ], [ 0, %entry ]
  ret i32 %len.0
}